; Function Attrs: mustprogress nofree norecurse nosync nounwind willreturn memory(read, inaccessiblemem: none) uwtable
define { ptr, ptr } @_ZNK17gmx_reverse_top_t17threadWorkObjectsEv(ptr noundef nonnull readonly align 8 captures(none) dereferenceable(8) %0) local_unnamed_addr #2 align 2 {
  %2 = load ptr, ptr %0, align 8, !tbaa !61
  %3 = getelementptr inbounds nuw i8, ptr %2, i64 128
  %4 = load ptr, ptr %3, align 8, !tbaa !63
  %5 = getelementptr inbounds nuw i8, ptr %2, i64 136
  %6 = load ptr, ptr %5, align 8, !tbaa !66
  %7 = ptrtoint ptr %6 to i64
  %8 = ptrtoint ptr %4 to i64
  %9 = sub i64 %7, %8
  %10 = getelementptr inbounds nuw i8, ptr %4, i64 %9
  %.fca.0.insert = insertvalue { ptr, ptr } poison, ptr %4, 0
  %.fca.1.insert = insertvalue { ptr, ptr } %.fca.0.insert, ptr %10, 1
  ret { ptr, ptr } %.fca.1.insert
}